Certificate:
    Data:
        Version: 3 (0x2)
        Serial Number:
            01:01:00:11:04
    Signature Algorithm: sha1WithRSAEncryption
        Issuer: C=US, ST=Georgia, L=Atlanta, O=Georgia Institute of Technology, OU=College of Computing, CN=Sameer/emailAddress=sameer.vijaykar@gatech.edu
        Validity
            Not Before: Apr 24 20:18:39 2013 GMT
            Not After : Apr 24 20:18:39 2014 GMT
        Subject: C=US, ST=Georgia, O=Georgia Institute of Technology, OU=College of Computing, CN=Server/emailAddress=server@sdfs.scs.gatech.edu
        Subject Public Key Info:
            Public Key Algorithm: rsaEncryption
                Public-Key: (2048 bit)
                Modulus:
                    00:b5:57:41:91:7d:df:c7:74:6d:b6:6f:b4:dc:c1:
                    23:df:92:a1:f5:10:87:1c:b8:79:37:a8:48:7b:33:
                    32:d6:ba:63:8f:1b:1e:48:93:53:c8:84:92:63:5c:
                    4a:e1:d3:48:b6:99:26:ec:26:6b:55:06:b1:df:ee:
                    40:22:32:cd:42:c0:87:a9:b0:bc:7a:89:8e:03:3f:
                    77:7c:52:6b:17:04:07:18:cf:83:14:8a:4c:0e:69:
                    98:9d:55:f0:57:90:9a:8b:e0:1c:35:94:aa:15:b5:
                    cc:7d:f6:60:6f:8c:07:b6:2b:b4:6e:56:cc:dc:5a:
                    47:d6:b7:ab:50:79:49:6c:14:59:29:b0:08:ac:01:
                    a2:26:74:ea:64:55:f5:18:46:64:f8:4c:15:84:46:
                    5e:ab:74:23:b6:40:57:9a:b5:09:ab:a1:69:6a:89:
                    7e:2c:8a:79:85:9f:c1:03:91:a8:b4:b7:40:d5:b6:
                    25:ae:43:13:36:70:93:aa:87:7d:00:31:ba:b6:a8:
                    07:7a:29:ac:35:b2:9a:07:ef:50:0b:78:ef:e5:9c:
                    98:9d:8e:7d:83:b2:6e:24:fe:47:97:ec:67:73:a6:
                    7c:14:87:00:37:e4:b7:2f:56:bf:5c:b1:c5:9e:2f:
                    7d:4f:14:7a:73:3d:ab:4d:33:80:86:db:b8:f9:01:
                    50:2b
                Exponent: 65537 (0x10001)
        X509v3 extensions:
            X509v3 Basic Constraints: 
                CA:FALSE
            Netscape Comment: 
                OpenSSL Generated Certificate
            X509v3 Subject Key Identifier: 
                7C:99:AB:2B:A9:29:A4:BF:68:BC:42:34:A8:34:86:E0:C0:6D:AB:8E
            X509v3 Authority Key Identifier: 
                keyid:AD:9C:93:DD:F2:05:0F:34:EC:09:EF:66:27:12:45:09:74:4A:CE:C9

    Signature Algorithm: sha1WithRSAEncryption
         4e:51:9e:a7:4c:26:f4:81:aa:77:be:6e:07:24:78:a4:ac:77:
         31:1a:cc:6a:5e:07:78:7f:d7:83:7c:96:31:d2:f8:9a:b0:e7:
         44:9c:bb:a7:91:1f:7c:3b:e4:62:52:99:b9:1a:24:6e:07:eb:
         66:b4:c8:67:4f:a3:d0:d2:9f:c7:68:14:8f:a1:fd:52:6d:f0:
         cb:6c:c8:bb:e7:a6:da:7e:b9:ee:88:69:5d:64:71:b8:5d:66:
         22:30:78:ac:13:1b:51:68:82:ca:b9:1d:d9:28:5a:f9:70:b3:
         97:36:f6:21:f6:04:07:e0:09:61:cd:bc:ed:4c:54:a8:03:e7:
         f9:aa:c3:a6:e0:c5:42:5e:71:36:88:31:7f:2a:47:99:9c:7c:
         3b:78:fd:8b:54:65:7c:53:3c:16:c0:89:a0:ad:2c:75:33:58:
         72:14:01:c0:0d:04:ac:05:ee:78:7b:3c:32:d2:e0:c8:6a:fa:
         d4:a9:d9:b5:df:bc:ca:c7:37:59:ed:58:d1:0b:c3:81:11:97:
         ef:60:b0:e2:32:94:5d:f7:2f:87:30:ad:aa:ab:d2:4b:69:12:
         b0:1c:b7:f8:18:eb:a5:27:f3:29:96:a2:a2:4a:bf:e2:2d:6b:
         9a:93:0d:b9:c3:b0:22:a4:28:b2:27:bc:0f:e5:94:e6:88:17:
         ca:e9:ec:c2
-----BEGIN CERTIFICATE-----
MIIEVjCCAz6gAwIBAgIFAQEAEQQwDQYJKoZIhvcNAQEFBQAwgbYxCzAJBgNVBAYT
AlVTMRAwDgYDVQQIDAdHZW9yZ2lhMRAwDgYDVQQHDAdBdGxhbnRhMSgwJgYDVQQK
DB9HZW9yZ2lhIEluc3RpdHV0ZSBvZiBUZWNobm9sb2d5MR0wGwYDVQQLDBRDb2xs
ZWdlIG9mIENvbXB1dGluZzEPMA0GA1UEAwwGU2FtZWVyMSkwJwYJKoZIhvcNAQkB
FhpzYW1lZXIudmlqYXlrYXJAZ2F0ZWNoLmVkdTAeFw0xMzA0MjQyMDE4MzlaFw0x
NDA0MjQyMDE4MzlaMIGkMQswCQYDVQQGEwJVUzEQMA4GA1UECAwHR2VvcmdpYTEo
MCYGA1UECgwfR2VvcmdpYSBJbnN0aXR1dGUgb2YgVGVjaG5vbG9neTEdMBsGA1UE
CwwUQ29sbGVnZSBvZiBDb21wdXRpbmcxDzANBgNVBAMMBlNlcnZlcjEpMCcGCSqG
SIb3DQEJARYac2VydmVyQHNkZnMuc2NzLmdhdGVjaC5lZHUwggEiMA0GCSqGSIb3
DQEBAQUAA4IBDwAwggEKAoIBAQC1V0GRfd/HdG22b7TcwSPfkqH1EIccuHk3qEh7
MzLWumOPGx5Ik1PIhJJjXErh00i2mSbsJmtVBrHf7kAiMs1CwIepsLx6iY4DP3d8
UmsXBAcYz4MUikwOaZidVfBXkJqL4Bw1lKoVtcx99mBvjAe2K7RuVszcWkfWt6tQ
eUlsFFkpsAisAaImdOpkVfUYRmT4TBWERl6rdCO2QFeatQmroWlqiX4sinmFn8ED
kai0t0DVtiWuQxM2cJOqh30AMbq2qAd6Kaw1spoH71ALeO/lnJidjn2Dsm4k/keX
7GdzpnwUhwA35LcvVr9cscWeL31PFHpzPatNM4CG27j5AVArAgMBAAGjezB5MAkG
A1UdEwQCMAAwLAYJYIZIAYb4QgENBB8WHU9wZW5TU0wgR2VuZXJhdGVkIENlcnRp
ZmljYXRlMB0GA1UdDgQWBBR8masrqSmkv2i8QjSoNIbgwG2rjjAfBgNVHSMEGDAW
gBStnJPd8gUPNOwJ72YnEkUJdErOyTANBgkqhkiG9w0BAQUFAAOCAQEATlGep0wm
9IGqd75uByR4pKx3MRrMal4HeH/Xg3yWMdL4mrDnRJy7p5EffDvkYlKZuRokbgfr
ZrTIZ0+j0NKfx2gUj6H9Um3wy2zIu+em2n657ohpXWRxuF1mIjB4rBMbUWiCyrkd
2Sha+XCzlzb2IfYEB+AJYc287UxUqAPn+arDpuDFQl5xNogxfypHmZx8O3j9i1Rl
fFM8FsCJoK0sdTNYchQBwA0ErAXueHs8MtLgyGr61KnZtd+8ysc3We1Y0QvDgRGX
72Cw4jKUXfcvhzCtqqvSS2kSsBy3+BjrpSfzKZaiokq/4i1rmpMNucOwIqQosie8
D+WU5ogXyunswg==
-----END CERTIFICATE-----
